; Function Attrs: mustprogress nounwind uwtable
define internal noundef zeroext i1 @_ZN12_GLOBAL__N_118AtomicExpandLegacy13runOnFunctionERN4llvm8FunctionE(ptr nocapture noundef nonnull readonly align 8 dereferenceable(28) %0, ptr noundef nonnull align 8 dereferenceable(136) %1) unnamed_addr #0 align 2 {
  %3 = alloca %"class.(anonymous namespace)::AtomicExpandImpl", align 8
  %4 = getelementptr inbounds nuw i8, ptr %0, i64 8
  %5 = load ptr, ptr %4, align 8
  %6 = tail call noundef ptr @_ZNK4llvm16AnalysisResolver22getAnalysisIfAvailableEPKv(ptr noundef nonnull align 8 dereferenceable(32) %5, ptr noundef nonnull @_ZN4llvm16TargetPassConfig2IDE) #16
  %.not.i = icmp eq ptr %6, null
  br i1 %.not.i, label %_ZNK4llvm4Pass22getAnalysisIfAvailableINS_16TargetPassConfigEEEPT_v.exit.thread, label %_ZNK4llvm4Pass22getAnalysisIfAvailableINS_16TargetPassConfigEEEPT_v.exit

_ZNK4llvm4Pass22getAnalysisIfAvailableINS_16TargetPassConfigEEEPT_v.exit: ; preds = %2
  %7 = load ptr, ptr %6, align 8
  %8 = getelementptr inbounds i8, ptr %7, i64 96
  %9 = load ptr, ptr %8, align 8
  %10 = tail call noundef ptr %9(ptr noundef nonnull align 8 dereferenceable(28) %6, ptr noundef nonnull @_ZN4llvm16TargetPassConfig2IDE) #16
  %.not = icmp eq ptr %10, null
  br i1 %.not, label %_ZNK4llvm4Pass22getAnalysisIfAvailableINS_16TargetPassConfigEEEPT_v.exit.thread, label %11

11:                                               ; preds = %_ZNK4llvm4Pass22getAnalysisIfAvailableINS_16TargetPassConfigEEEPT_v.exit
  %12 = getelementptr inbounds nuw i8, ptr %10, i64 112
  %13 = load ptr, ptr %12, align 8
  call void @llvm.memset.p0.i64(ptr noundef nonnull align 8 dereferenceable(16) %3, i8 0, i64 16, i1 false)
  %14 = call fastcc noundef zeroext i1 @_ZN12_GLOBAL__N_116AtomicExpandImpl3runERN4llvm8FunctionEPKNS1_13TargetMachineE(ptr noundef nonnull align 8 dereferenceable(16) %3, ptr noundef nonnull align 8 dereferenceable(136) %1, ptr noundef nonnull %13)
  br label %_ZNK4llvm4Pass22getAnalysisIfAvailableINS_16TargetPassConfigEEEPT_v.exit.thread

_ZNK4llvm4Pass22getAnalysisIfAvailableINS_16TargetPassConfigEEEPT_v.exit.thread: ; preds = %2, %_ZNK4llvm4Pass22getAnalysisIfAvailableINS_16TargetPassConfigEEEPT_v.exit, %11
  %.0 = phi i1 [ %14, %11 ], [ false, %_ZNK4llvm4Pass22getAnalysisIfAvailableINS_16TargetPassConfigEEEPT_v.exit ], [ false, %2 ]
  ret i1 %.0
}